344:00000000004046a0 <PyUnicode_FromString@plt>:
345:  4046a0:	ff 25 72 4b 23 00    	jmp    QWORD PTR [rip+0x234b72]        # 639218 <PyUnicode_FromString@Base>
1067:  405090:	e8 0b f6 ff ff       	call   4046a0 <PyUnicode_FromString@plt>
1763:  405f0a:	e8 91 e7 ff ff       	call   4046a0 <PyUnicode_FromString@plt>
1857:  4060f0:	e8 ab e5 ff ff       	call   4046a0 <PyUnicode_FromString@plt>
2251:  406817:	e8 84 de ff ff       	call   4046a0 <PyUnicode_FromString@plt>
2266:  40685c:	e8 3f de ff ff       	call   4046a0 <PyUnicode_FromString@plt>
2270:  406873:	e8 28 de ff ff       	call   4046a0 <PyUnicode_FromString@plt>
3023:  407437:	e9 64 d2 ff ff       	jmp    4046a0 <PyUnicode_FromString@plt>
3035:  407469:	e8 32 d2 ff ff       	call   4046a0 <PyUnicode_FromString@plt>
3086:  407519:	e8 82 d1 ff ff       	call   4046a0 <PyUnicode_FromString@plt>
3137:  4075c9:	e8 d2 d0 ff ff       	call   4046a0 <PyUnicode_FromString@plt>
3188:  407679:	e8 22 d0 ff ff       	call   4046a0 <PyUnicode_FromString@plt>
3239:  407729:	e8 72 cf ff ff       	call   4046a0 <PyUnicode_FromString@plt>
3461:  407ac7:	e8 d4 cb ff ff       	call   4046a0 <PyUnicode_FromString@plt>
3493:  407b32:	e8 69 cb ff ff       	call   4046a0 <PyUnicode_FromString@plt>
3612:  407ce7:	e8 b4 c9 ff ff       	call   4046a0 <PyUnicode_FromString@plt>
4160:  40856b:	e8 30 c1 ff ff       	call   4046a0 <PyUnicode_FromString@plt>
4220:  40864f:	e8 4c c0 ff ff       	call   4046a0 <PyUnicode_FromString@plt>
4316:  4087c7:	e8 d4 be ff ff       	call   4046a0 <PyUnicode_FromString@plt>
4747:  408e17:	e8 84 b8 ff ff       	call   4046a0 <PyUnicode_FromString@plt>
4753:  408e37:	e8 64 b8 ff ff       	call   4046a0 <PyUnicode_FromString@plt>
4809:  408f17:	e8 84 b7 ff ff       	call   4046a0 <PyUnicode_FromString@plt>
4830:  408f67:	e9 34 b7 ff ff       	jmp    4046a0 <PyUnicode_FromString@plt>
5041:  4092e7:	e8 b4 b3 ff ff       	call   4046a0 <PyUnicode_FromString@plt>
5630:  409bdf:	e8 bc aa ff ff       	call   4046a0 <PyUnicode_FromString@plt>
5709:  409d01:	e8 9a a9 ff ff       	call   4046a0 <PyUnicode_FromString@plt>
5799:  409e63:	e8 38 a8 ff ff       	call   4046a0 <PyUnicode_FromString@plt>
6095:  40a342:	e8 59 a3 ff ff       	call   4046a0 <PyUnicode_FromString@plt>
6348:  40a6f6:	e8 a5 9f ff ff       	call   4046a0 <PyUnicode_FromString@plt>
6391:  40a796:	e8 05 9f ff ff       	call   4046a0 <PyUnicode_FromString@plt>
6447:  40a87c:	e8 1f 9e ff ff       	call   4046a0 <PyUnicode_FromString@plt>
6572:  40aa57:	e8 44 9c ff ff       	call   4046a0 <PyUnicode_FromString@plt>
6588:  40aaa7:	e8 f4 9b ff ff       	call   4046a0 <PyUnicode_FromString@plt>
8479:  40c6c6:	e8 d5 7f ff ff       	call   4046a0 <PyUnicode_FromString@plt>
11726:  40fed4:	e8 c7 47 ff ff       	call   4046a0 <PyUnicode_FromString@plt>
11997:  410346:	e8 55 43 ff ff       	call   4046a0 <PyUnicode_FromString@plt>
12030:  4103bf:	e8 dc 42 ff ff       	call   4046a0 <PyUnicode_FromString@plt>
12214:  4106dc:	e8 bf 3f ff ff       	call   4046a0 <PyUnicode_FromString@plt>
12260:  410799:	e8 02 3f ff ff       	call   4046a0 <PyUnicode_FromString@plt>
12568:  410c27:	e8 74 3a ff ff       	call   4046a0 <PyUnicode_FromString@plt>
12705:  410e3c:	e8 5f 38 ff ff       	call   4046a0 <PyUnicode_FromString@plt>
12754:  410efd:	e8 9e 37 ff ff       	call   4046a0 <PyUnicode_FromString@plt>
13182:  41154d:	e8 4e 31 ff ff       	call   4046a0 <PyUnicode_FromString@plt>
13222:  4115cf:	e8 cc 30 ff ff       	call   4046a0 <PyUnicode_FromString@plt>
13244:  411612:	e8 89 30 ff ff       	call   4046a0 <PyUnicode_FromString@plt>
13449:  411924:	e8 77 2d ff ff       	call   4046a0 <PyUnicode_FromString@plt>
15375:  413551:	e8 4a 11 ff ff       	call   4046a0 <PyUnicode_FromString@plt>
15522:  413769:	e8 32 0f ff ff       	call   4046a0 <PyUnicode_FromString@plt>
16361:  414480:	e8 1b 02 ff ff       	call   4046a0 <PyUnicode_FromString@plt>
16437:  4145c3:	e8 d8 00 ff ff       	call   4046a0 <PyUnicode_FromString@plt>
16485:  41468f:	e8 0c 00 ff ff       	call   4046a0 <PyUnicode_FromString@plt>
16497:  4146be:	e8 dd ff fe ff       	call   4046a0 <PyUnicode_FromString@plt>
16536:  41475d:	e8 3e ff fe ff       	call   4046a0 <PyUnicode_FromString@plt>
16548:  41478b:	e8 10 ff fe ff       	call   4046a0 <PyUnicode_FromString@plt>
16551:  414796:	e8 05 ff fe ff       	call   4046a0 <PyUnicode_FromString@plt>
16644:  41490b:	e8 90 fd fe ff       	call   4046a0 <PyUnicode_FromString@plt>
16647:  414916:	e8 85 fd fe ff       	call   4046a0 <PyUnicode_FromString@plt>
16670:  41496d:	e8 2e fd fe ff       	call   4046a0 <PyUnicode_FromString@plt>
16780:  414b42:	e8 59 fb fe ff       	call   4046a0 <PyUnicode_FromString@plt>
16801:  414ba0:	e8 fb fa fe ff       	call   4046a0 <PyUnicode_FromString@plt>
17322:  415311:	e8 8a f3 fe ff       	call   4046a0 <PyUnicode_FromString@plt>
17423:  415471:	e8 2a f2 fe ff       	call   4046a0 <PyUnicode_FromString@plt>
17536:  415601:	e8 9a f0 fe ff       	call   4046a0 <PyUnicode_FromString@plt>
17821:  415a75:	e8 26 ec fe ff       	call   4046a0 <PyUnicode_FromString@plt>
18575:  416480:	e8 1b e2 fe ff       	call   4046a0 <PyUnicode_FromString@plt>
18767:  41675b:	e8 40 df fe ff       	call   4046a0 <PyUnicode_FromString@plt>
18794:  4167bf:	e8 dc de fe ff       	call   4046a0 <PyUnicode_FromString@plt>
18813:  416809:	e8 92 de fe ff       	call   4046a0 <PyUnicode_FromString@plt>
18864:  4168b9:	e8 e2 dd fe ff       	call   4046a0 <PyUnicode_FromString@plt>
18918:  416975:	e8 26 dd fe ff       	call   4046a0 <PyUnicode_FromString@plt>
18941:  4169c9:	e8 d2 dc fe ff       	call   4046a0 <PyUnicode_FromString@plt>
18992:  416a79:	e8 22 dc fe ff       	call   4046a0 <PyUnicode_FromString@plt>
19067:  416b6f:	e8 2c db fe ff       	call   4046a0 <PyUnicode_FromString@plt>
19140:  416c5f:	e8 3c da fe ff       	call   4046a0 <PyUnicode_FromString@plt>
19755:  417531:	e8 6a d1 fe ff       	call   4046a0 <PyUnicode_FromString@plt>
25728:  41d281:	e8 1a 74 fe ff       	call   4046a0 <PyUnicode_FromString@plt>
26626:  41defc:	e8 9f 67 fe ff       	call   4046a0 <PyUnicode_FromString@plt>
26632:  41df15:	e8 86 67 fe ff       	call   4046a0 <PyUnicode_FromString@plt>
26939:  41e3c1:	e8 da 62 fe ff       	call   4046a0 <PyUnicode_FromString@plt>
26972:  41e459:	e8 42 62 fe ff       	call   4046a0 <PyUnicode_FromString@plt>
27364:  41eaee:	e8 ad 5b fe ff       	call   4046a0 <PyUnicode_FromString@plt>
27493:  41ece9:	e8 b2 59 fe ff       	call   4046a0 <PyUnicode_FromString@plt>
27519:  41ed64:	e8 37 59 fe ff       	call   4046a0 <PyUnicode_FromString@plt>
27529:  41ed96:	e8 05 59 fe ff       	call   4046a0 <PyUnicode_FromString@plt>
27728:  41f08c:	e8 0f 56 fe ff       	call   4046a0 <PyUnicode_FromString@plt>
28220:  41f851:	e8 4a 4e fe ff       	call   4046a0 <PyUnicode_FromString@plt>
28336:  41fa11:	e8 8a 4c fe ff       	call   4046a0 <PyUnicode_FromString@plt>
28756:  4200be:	e8 dd 45 fe ff       	call   4046a0 <PyUnicode_FromString@plt>
28908:  420357:	e8 44 43 fe ff       	call   4046a0 <PyUnicode_FromString@plt>
29042:  420538:	e8 63 41 fe ff       	call   4046a0 <PyUnicode_FromString@plt>
30396:  4217f9:	e8 a2 2e fe ff       	call   4046a0 <PyUnicode_FromString@plt>
30447:  4218a9:	e8 f2 2d fe ff       	call   4046a0 <PyUnicode_FromString@plt>
30498:  421959:	e8 42 2d fe ff       	call   4046a0 <PyUnicode_FromString@plt>
30573:  421a4f:	e8 4c 2c fe ff       	call   4046a0 <PyUnicode_FromString@plt>
30646:  421b3f:	e8 5c 2b fe ff       	call   4046a0 <PyUnicode_FromString@plt>
30695:  421be9:	e8 b2 2a fe ff       	call   4046a0 <PyUnicode_FromString@plt>
30746:  421c99:	e8 02 2a fe ff       	call   4046a0 <PyUnicode_FromString@plt>
30821:  421d8f:	e8 0c 29 fe ff       	call   4046a0 <PyUnicode_FromString@plt>
30894:  421e7f:	e8 1c 28 fe ff       	call   4046a0 <PyUnicode_FromString@plt>
30943:  421f29:	e8 72 27 fe ff       	call   4046a0 <PyUnicode_FromString@plt>
30994:  421fd9:	e8 c2 26 fe ff       	call   4046a0 <PyUnicode_FromString@plt>
31045:  422089:	e8 12 26 fe ff       	call   4046a0 <PyUnicode_FromString@plt>
31096:  422139:	e8 62 25 fe ff       	call   4046a0 <PyUnicode_FromString@plt>
31147:  4221e9:	e8 b2 24 fe ff       	call   4046a0 <PyUnicode_FromString@plt>
31224:  4222ef:	e8 ac 23 fe ff       	call   4046a0 <PyUnicode_FromString@plt>
31297:  4223df:	e8 bc 22 fe ff       	call   4046a0 <PyUnicode_FromString@plt>
31804:  422aba:	e8 e1 1b fe ff       	call   4046a0 <PyUnicode_FromString@plt>
31807:  422ac9:	e8 d2 1b fe ff       	call   4046a0 <PyUnicode_FromString@plt>
31813:  422ae9:	e8 b2 1b fe ff       	call   4046a0 <PyUnicode_FromString@plt>
31952:  422cf1:	e8 aa 19 fe ff       	call   4046a0 <PyUnicode_FromString@plt>
31955:  422d00:	e8 9b 19 fe ff       	call   4046a0 <PyUnicode_FromString@plt>
31958:  422d11:	e8 8a 19 fe ff       	call   4046a0 <PyUnicode_FromString@plt>
31986:  422d7b:	e8 20 19 fe ff       	call   4046a0 <PyUnicode_FromString@plt>
31989:  422d8a:	e8 11 19 fe ff       	call   4046a0 <PyUnicode_FromString@plt>
31995:  422daa:	e8 f1 18 fe ff       	call   4046a0 <PyUnicode_FromString@plt>
32138:  422fc9:	e8 d2 16 fe ff       	call   4046a0 <PyUnicode_FromString@plt>
32141:  422fd8:	e8 c3 16 fe ff       	call   4046a0 <PyUnicode_FromString@plt>
34544:  4253cf:	e8 cc f2 fd ff       	call   4046a0 <PyUnicode_FromString@plt>
34577:  425448:	e8 53 f2 fd ff       	call   4046a0 <PyUnicode_FromString@plt>
34623:  4254f9:	e8 a2 f1 fd ff       	call   4046a0 <PyUnicode_FromString@plt>
34669:  4255a9:	e8 f2 f0 fd ff       	call   4046a0 <PyUnicode_FromString@plt>
34732:  42569f:	e8 fc ef fd ff       	call   4046a0 <PyUnicode_FromString@plt>
34758:  4256ff:	e8 9c ef fd ff       	call   4046a0 <PyUnicode_FromString@plt>
34798:  42578f:	e8 0c ef fd ff       	call   4046a0 <PyUnicode_FromString@plt>
35112:  425c17:	e8 84 ea fd ff       	call   4046a0 <PyUnicode_FromString@plt>
35307:  425f4a:	e8 51 e7 fd ff       	call   4046a0 <PyUnicode_FromString@plt>
36491:  426fe8:	e8 b3 d6 fd ff       	call   4046a0 <PyUnicode_FromString@plt>
36532:  42707f:	e8 1c d6 fd ff       	call   4046a0 <PyUnicode_FromString@plt>
36684:  4272a1:	e8 fa d3 fd ff       	call   4046a0 <PyUnicode_FromString@plt>
36839:  4274bc:	e8 df d1 fd ff       	call   4046a0 <PyUnicode_FromString@plt>
37737:  428285:	e8 16 c4 fd ff       	call   4046a0 <PyUnicode_FromString@plt>
38891:  4294af:	e8 ec b1 fd ff       	call   4046a0 <PyUnicode_FromString@plt>
39158:  429916:	e8 85 ad fd ff       	call   4046a0 <PyUnicode_FromString@plt>
39331:  429bc1:	e8 da aa fd ff       	call   4046a0 <PyUnicode_FromString@plt>
